target datalayout = "e-m:e-p270:32:32-p271:32:32-p272:64:64-i64:64-i128:128-f80:128-n8:16:32:64-S128"
target triple = "x86_64-pc-linux-gnu"

%struct.ResourceReleaseCallbackItem = type { ptr, ptr, ptr }

@TopMemoryContext = external global ptr, align 8
@ResourceRelease_callbacks = internal global ptr null, align 8

; Function Attrs: nounwind uwtable
define dso_local void @RegisterResourceReleaseCallback(ptr noundef %0, ptr noundef %1) #0 {
  %3 = alloca ptr, align 8
  %4 = alloca ptr, align 8
  %5 = alloca ptr, align 8
  store ptr %0, ptr %3, align 8
  store ptr %1, ptr %4, align 8
  call void @llvm.lifetime.start.p0(i64 8, ptr %5) #6
  %6 = load ptr, ptr @TopMemoryContext, align 8
  %7 = call ptr @MemoryContextAlloc(ptr noundef %6, i64 noundef 24)
  store ptr %7, ptr %5, align 8
  %8 = load ptr, ptr %3, align 8
  %9 = load ptr, ptr %5, align 8
  %10 = getelementptr inbounds nuw %struct.ResourceReleaseCallbackItem, ptr %9, i32 0, i32 1
  store ptr %8, ptr %10, align 8
  %11 = load ptr, ptr %4, align 8
  %12 = load ptr, ptr %5, align 8
  %13 = getelementptr inbounds nuw %struct.ResourceReleaseCallbackItem, ptr %12, i32 0, i32 2
  store ptr %11, ptr %13, align 8
  %14 = load ptr, ptr @ResourceRelease_callbacks, align 8
  %15 = load ptr, ptr %5, align 8
  %16 = getelementptr inbounds nuw %struct.ResourceReleaseCallbackItem, ptr %15, i32 0, i32 0
  store ptr %14, ptr %16, align 8
  %17 = load ptr, ptr %5, align 8
  store ptr %17, ptr @ResourceRelease_callbacks, align 8
  call void @llvm.lifetime.end.p0(i64 8, ptr %5) #6
  ret void
}