; Function Attrs: nounwind uwtable
define dso_local void @RegisterResourceReleaseCallback(ptr noundef %0, ptr noundef %1) local_unnamed_addr #0 {
  %3 = load ptr, ptr @TopMemoryContext, align 8
  %4 = tail call ptr @MemoryContextAlloc(ptr noundef %3, i64 noundef 24) #10
  %5 = getelementptr inbounds nuw i8, ptr %4, i64 8
  store ptr %0, ptr %5, align 8
  %6 = getelementptr inbounds nuw i8, ptr %4, i64 16
  store ptr %1, ptr %6, align 8
  %7 = load ptr, ptr @ResourceRelease_callbacks, align 8
  store ptr %7, ptr %4, align 8
  store ptr %4, ptr @ResourceRelease_callbacks, align 8
  ret void
}